((lp0
F0.6358666666666667
aF0.7593333333333333
aF0.7996666666666666
aF0.8174666666666667
aF0.8248666666666666
aF0.8332
aF0.8401333333333333
aF0.8376666666666667
aF0.8456
aF0.8462666666666666
aF0.8483333333333334
aF0.8473333333333334
aF0.8458666666666667
aF0.8421333333333333
aF0.8479333333333333
aF0.8424
aF0.8388
aF0.8290666666666666
aF0.8281333333333334
aF0.8336
aF0.822
aF0.8286666666666667
aF0.8274666666666667
aF0.8246
aF0.8148666666666666
aF0.8271333333333334
aF0.8216
aF0.8126
aF0.8123333333333334
aF0.8126
aF0.8098
aF0.8152
aF0.8177333333333333
aF0.8180666666666667
aF0.8096
aF0.8045333333333333
aF0.8089333333333333
aF0.8088
aF0.81
aF0.8088666666666666
aF0.7990666666666667
aF0.8052666666666667
aF0.8034
aF0.8004
aF0.7976
aF0.8024
aF0.7967333333333333
aF0.7997333333333333
aF0.7912
aF0.7954
aF0.7942
aF0.7968
aF0.7963333333333333
aF0.7986
aF0.7964
aF0.7894
aF0.7918666666666667
aF0.7908
aF0.7941333333333334
aF0.7949333333333334
aF0.7936
aF0.7919333333333334
aF0.7857333333333333
aF0.7852666666666667
aF0.7915333333333333
aF0.7925333333333333
aF0.7923333333333333
aF0.7861333333333334
aF0.7858
aF0.7893333333333333
aF0.7948
aF0.7842666666666667
aF0.7873333333333333
aF0.7840666666666667
aF0.7898
aF0.7826666666666666
aF0.7804
aF0.7813333333333333
aF0.7855333333333333
aF0.7858
aF0.7819333333333334
aF0.7808
aF0.7744
aF0.7883333333333333
aF0.7835333333333333
aF0.7826
aF0.7797333333333333
aF0.778
aF0.7838666666666667
aF0.7891333333333334
aF0.7828
aF0.7789333333333334
aF0.7858666666666667
aF0.7795333333333333
aF0.7772666666666667
aF0.7795333333333333
aF0.7751333333333333
aF0.7796
aF0.7880666666666667
aF0.7902666666666667
a(lp1
F0.62
aF0.75
aF0.794
aF0.816
aF0.828
aF0.833
aF0.842
aF0.841
aF0.844
aF0.84
aF0.842
aF0.845
aF0.844
aF0.842
aF0.847
aF0.84
aF0.841
aF0.83
aF0.832
aF0.834
aF0.826
aF0.83
aF0.827
aF0.825
aF0.817
aF0.829
aF0.825
aF0.82
aF0.822
aF0.818
aF0.814
aF0.818
aF0.824
aF0.825
aF0.816
aF0.81
aF0.817
aF0.813
aF0.812
aF0.811
aF0.801
aF0.81
aF0.804
aF0.803
aF0.803
aF0.806
aF0.8
aF0.805
aF0.796
aF0.798
aF0.799
aF0.797
aF0.799
aF0.8
aF0.797
aF0.789
aF0.794
aF0.794
aF0.795
aF0.796
aF0.793
aF0.794
aF0.787
aF0.785
aF0.793
aF0.794
aF0.792
aF0.787
aF0.788
aF0.791
aF0.794
aF0.785
aF0.787
aF0.782
aF0.792
aF0.786
aF0.782
aF0.783
aF0.781
aF0.786
aF0.78
aF0.78
aF0.769
aF0.786
aF0.785
aF0.783
aF0.776
aF0.77
aF0.782
aF0.786
aF0.78
aF0.764
aF0.78
aF0.775
aF0.774
aF0.771
aF0.769
aF0.774
aF0.781
aF0.784
a(lp2
F0.6468428781204112
aF0.7683553597650514
aF0.8102055800293686
aF0.8248898678414097
aF0.827826725403818
aF0.8329662261380323
aF0.841776798825257
aF0.8373715124816447
aF0.8443465491923642
aF0.8454478707782672
aF0.8491189427312775
aF0.8469162995594713
aF0.8487518355359766
aF0.841776798825257
aF0.8436123348017621
aF0.8447136563876652
aF0.8384728340675477
aF0.8296622613803231
aF0.827826725403818
aF0.829295154185022
aF0.8197503671071953
aF0.8259911894273128
aF0.8223201174743024
aF0.8226872246696035
aF0.8116740088105727
aF0.8226872246696035
aF0.8179148311306902
aF0.8091042584434655
aF0.8098384728340675
aF0.8124082232011748
aF0.8098384728340675
aF0.8138766519823789
aF0.8131424375917768
aF0.8138766519823789
aF0.8065345080763583
aF0.8021292217327459
aF0.8065345080763583
aF0.8061674008810573
aF0.8069016152716594
aF0.8021292217327459
aF0.7973568281938326
aF0.8002936857562408
aF0.7977239353891337
aF0.7966226138032305
aF0.7944199706314243
aF0.7977239353891337
aF0.78928046989721
aF0.7933186490455213
aF0.7845080763582967
aF0.7918502202643172
aF0.7870778267254038
aF0.789647577092511
aF0.7863436123348018
aF0.7870778267254038
aF0.7867107195301027
aF0.7819383259911894
aF0.7837738619676946
aF0.7852422907488987
aF0.7837738619676946
aF0.7863436123348018
aF0.7852422907488987
aF0.7812041116005873
aF0.7775330396475771
aF0.776431718061674
aF0.7819383259911894
aF0.7812041116005873
aF0.7819383259911894
aF0.775330396475771
aF0.776431718061674
aF0.7786343612334802
aF0.7830396475770925
aF0.776064610866373
aF0.7782672540381792
aF0.775330396475771
aF0.7804698972099853
aF0.7734948604992657
aF0.7690895741556535
aF0.7731277533039648
aF0.7745961820851689
aF0.7749632892804699
aF0.7716593245227606
aF0.7716593245227606
aF0.7661527165932452
aF0.7782672540381792
aF0.7712922173274597
aF0.7716593245227606
aF0.7716593245227606
aF0.7712922173274597
aF0.7727606461086637
aF0.7767988252569751
aF0.7705580029368576
aF0.7701908957415565
aF0.7745961820851689
aF0.7690895741556535
aF0.7683553597650514
aF0.7654185022026432
aF0.7646842878120411
aF0.7668869309838473
aF0.7734948604992657
aF0.7742290748898678
a(lp3
cnumpy.core.multiarray
scalar
p4
(cnumpy
dtype
p5
(S'f4'
p6
I0
I1
tp7
Rp8
(I3
S'<'
p9
NNNI-1
I-1
I0
tp10
bS'VS\x90?'
p11
tp12
Rp13
ag4
(g8
S'\x91@L?'
p14
tp15
Rp16
ag4
(g8
S'\xeb\xb51?'
p17
tp18
Rp19
ag4
(g8
S'\x8b\x83#?'
p20
tp21
Rp22
ag4
(g8
S'\xe1\xe7\x19?'
p23
tp24
Rp25
ag4
(g8
S'A\x83\x13?'
p26
tp27
Rp28
ag4
(g8
S'D\xb7\x0f?'
p29
tp30
Rp31
ag4
(g8
S'\xea\xce\n?'
p32
tp33
Rp34
ag4
(g8
S'x\xbb\x06?'
p35
tp36
Rp37
ag4
(g8
S'rf\x03?'
p38
tp39
Rp40
ag4
(g8
S'\x8dX\x00?'
p41
tp42
Rp43
ag4
(g8
S'\x7f\xd6\xfc>'
p44
tp45
Rp46
ag4
(g8
S'hk\xf5>'
p47
tp48
Rp49
ag4
(g8
S'\x12\xdd\xf1>'
p50
tp51
Rp52
ag4
(g8
S'(\xb5\xee>'
p53
tp54
Rp55
ag4
(g8
S'\xb6W\xea>'
p56
tp57
Rp58
ag4
(g8
S'h8\xe7>'
p59
tp60
Rp61
ag4
(g8
S'\xf3\xcf\xe2>'
p62
tp63
Rp64
ag4
(g8
S'{Q\xdf>'
p65
tp66
Rp67
ag4
(g8
S'8\xd8\xdc>'
p68
tp69
Rp70
ag4
(g8
S'R\xce\xd9>'
p71
tp72
Rp73
ag4
(g8
S'\x87B\xd6>'
p74
tp75
Rp76
ag4
(g8
S'\xfc\xb5\xd3>'
p77
tp78
Rp79
ag4
(g8
S'lW\xd1>'
p80
tp81
Rp82
ag4
(g8
S':\xac\xcd>'
p83
tp84
Rp85
ag4
(g8
S'5\xdc\xca>'
p86
tp87
Rp88
ag4
(g8
S'\x18\xfe\xc9>'
p89
tp90
Rp91
ag4
(g8
S'\xd4\xe2\xc7>'
p92
tp93
Rp94
ag4
(g8
S'\xaa\xfc\xc4>'
p95
tp96
Rp97
ag4
(g8
S'\xb3\xf1\xc3>'
p98
tp99
Rp100
ag4
(g8
S'\xa0!\xc0>'
p101
tp102
Rp103
ag4
(g8
S'\xa7\xcd\xbf>'
p104
tp105
Rp106
ag4
(g8
S'#m\xbd>'
p107
tp108
Rp109
ag4
(g8
S'\x18\xd2\xbb>'
p110
tp111
Rp112
ag4
(g8
S'\xc0\x17\xb9>'
p113
tp114
Rp115
ag4
(g8
S'\x12Q\xb7>'
p116
tp117
Rp118
ag4
(g8
S'\n\xd2\xb5>'
p119
tp120
Rp121
ag4
(g8
S'\xd2\xbe\xb3>'
p122
tp123
Rp124
ag4
(g8
S'h\xab\xb3>'
p125
tp126
Rp127
ag4
(g8
S'\xd5\x03\xb2>'
p128
tp129
Rp130
ag4
(g8
S'\xa8\x84\xae>'
p131
tp132
Rp133
ag4
(g8
S'4!\xad>'
p134
tp135
Rp136
ag4
(g8
S'f\xf0\xaa>'
p137
tp138
Rp139
ag4
(g8
S'\xeb\xde\xaa>'
p140
tp141
Rp142
ag4
(g8
S'\x0eg\xa9>'
p143
tp144
Rp145
ag4
(g8
S'\x0c\x88\xa6>'
p146
tp147
Rp148
ag4
(g8
S':\xc2\xa6>'
p149
tp150
Rp151
ag4
(g8
S'\xd0\xfe\xa3>'
p152
tp153
Rp154
ag4
(g8
S'-\x7f\xa2>'
p155
tp156
Rp157
ag4
(g8
S',\xe0\xa2>'
p158
tp159
Rp160
ag4
(g8
S'<d\xa0>'
p161
tp162
Rp163
ag4
(g8
S'\x07\xef\x9e>'
p164
tp165
Rp166
ag4
(g8
S'\xe6B\x9c>'
p167
tp168
Rp169
ag4
(g8
S'\xa4\x0f\x9d>'
p170
tp171
Rp172
ag4
(g8
S'l\xe6\x9a>'
p173
tp174
Rp175
ag4
(g8
S'\xd6\x9b\x99>'
p176
tp177
Rp178
ag4
(g8
S'\x9fA\x98>'
p179
tp180
Rp181
ag4
(g8
S'\xe7J\x97>'
p182
tp183
Rp184
ag4
(g8
S'\xe3\xf6\x94>'
p185
tp186
Rp187
ag4
(g8
S'KP\x94>'
p188
tp189
Rp190
ag4
(g8
S'A\xc9\x93>'
p191
tp192
Rp193
ag4
(g8
S"'\xc6\x92>"
p194
tp195
Rp196
ag4
(g8
S'I\xf2\x90>'
p197
tp198
Rp199
ag4
(g8
S'\n@\x8f>'
p200
tp201
Rp202
ag4
(g8
S'll\x8e>'
p203
tp204
Rp205
ag4
(g8
S'\x08N\x8e>'
p206
tp207
Rp208
ag4
(g8
S'2\xed\x8b>'
p209
tp210
Rp211
ag4
(g8
S'\xea\xd7\x8c>'
p212
tp213
Rp214
ag4
(g8
S'\x81\xde\x89>'
p215
tp216
Rp217
ag4
(g8
S'\x0f\xa3\x89>'
p218
tp219
Rp220
ag4
(g8
S'\xdb\x99\x88>'
p221
tp222
Rp223
ag4
(g8
S'\xba1\x88>'
p224
tp225
Rp226
ag4
(g8
S'\x8d\xe2\x85>'
p227
tp228
Rp229
ag4
(g8
S'\xdc\x14\x86>'
p230
tp231
Rp232
ag4
(g8
S'\x89\x98\x85>'
p233
tp234
Rp235
ag4
(g8
S'n\\\x83>'
p236
tp237
Rp238
ag4
(g8
S'\xdf\x10\x82>'
p239
tp240
Rp241
ag4
(g8
S'\x85\xf0\x81>'
p242
tp243
Rp244
ag4
(g8
S'S\x81\x81>'
p245
tp246
Rp247
ag4
(g8
S'\x18\xe2\x80>'
p248
tp249
Rp250
ag4
(g8
S'L\xde|>'
p251
tp252
Rp253
ag4
(g8
S'\x0cz|>'
p254
tp255
Rp256
ag4
(g8
S'x\xa3{>'
p257
tp258
Rp259
ag4
(g8
S'\xb8)y>'
p260
tp261
Rp262
ag4
(g8
S'[,w>'
p263
tp264
Rp265
ag4
(g8
S'\x02\xbfu>'
p266
tp267
Rp268
ag4
(g8
S'\xc8\xb0s>'
p269
tp270
Rp271
ag4
(g8
S'h\xecq>'
p272
tp273
Rp274
ag4
(g8
S'f\xdas>'
p275
tp276
Rp277
ag4
(g8
S'\\`p>'
p278
tp279
Rp280
ag4
(g8
S'\xb8Lo>'
p281
tp282
Rp283
ag4
(g8
S'\xae\xd6m>'
p284
tp285
Rp286
ag4
(g8
S'I\x83i>'
p287
tp288
Rp289
ag4
(g8
S'\x89~j>'
p290
tp291
Rp292
ag4
(g8
S'fnj>'
p293
tp294
Rp295
ag4
(g8
S'3\x8af>'
p296
tp297
Rp298
ag4
(g8
S'\xd4\x16e>'
p299
tp300
Rp301
ag4
(g8
S'z@f>'
p302
tp303
Rp304
ag4
(g8
S'~Ha>'
p305
tp306
Rp307
ag4
(g8
S'D\xfda>'
p308
tp309
Rp310
a(lp311
g4
(g8
S';q\x90?'
p312
tp313
Rp314
ag4
(g8
S'\xbcNM?'
p315
tp316
Rp317
ag4
(g8
S'\x92Q4?'
p318
tp319
Rp320
ag4
(g8
S'\x05\xec$?'
p321
tp322
Rp323
ag4
(g8
S'\xd9\xb8\x1a?'
p324
tp325
Rp326
ag4
(g8
S'\x83\x0f\x16?'
p327
tp328
Rp329
ag4
(g8
S'\x80Q\x11?'
p330
tp331
Rp332
ag4
(g8
S'\x8ai\r?'
p333
tp334
Rp335
ag4
(g8
S'n9\x07?'
p336
tp337
Rp338
ag4
(g8
S'<y\x04?'
p339
tp340
Rp341
ag4
(g8
S'\xba\xf7\x01?'
p342
tp343
Rp344
ag4
(g8
S'J\xcf\xff>'
p345
tp346
Rp347
ag4
(g8
S'\xa2W\x00?'
p348
tp349
Rp350
ag4
(g8
S'j\x05\xff>'
p351
tp352
Rp353
ag4
(g8
S'\xec\x0f\xf6>'
p354
tp355
Rp356
ag4
(g8
S'\x83v\xec>'
p357
tp358
Rp359
ag4
(g8
S'\xc4p\xec>'
p360
tp361
Rp362
ag4
(g8
S'\x07\xad\xea>'
p363
tp364
Rp365
ag4
(g8
S'@\x8a\xe6>'
p366
tp367
Rp368
ag4
(g8
S'W\xa2\xe6>'
p369
tp370
Rp371
ag4
(g8
S'\xd7\x18\xe8>'
p372
tp373
Rp374
ag4
(g8
S'\x06r\xe3>'
p375
tp376
Rp377
ag4
(g8
S'J6\xe6>'
p378
tp379
Rp380
ag4
(g8
S'\x01\xd0\xe3>'
p381
tp382
Rp383
ag4
(g8
S'F\xe6\xdc>'
p384
tp385
Rp386
ag4
(g8
S'\xe2\xb5\xde>'
p387
tp388
Rp389
ag4
(g8
S'[\x01\xdd>'
p390
tp391
Rp392
ag4
(g8
S'\xd1C\xd8>'
p393
tp394
Rp395
ag4
(g8
S'\x9e\xa1\xd6>'
p396
tp397
Rp398
ag4
(g8
S'\x0c \xd4>'
p399
tp400
Rp401
ag4
(g8
S'ti\xda>'
p402
tp403
Rp404
ag4
(g8
S'\xbd\xb4\xd7>'
p405
tp406
Rp407
ag4
(g8
S'<\x18\xd4>'
p408
tp409
Rp410
ag4
(g8
S'^\xc1\xd3>'
p411
tp412
Rp413
ag4
(g8
S'\xeaf\xd1>'
p414
tp415
Rp416
ag4
(g8
S'\x82\xad\xd2>'
p417
tp418
Rp419
ag4
(g8
S'!5\xce>'
p420
tp421
Rp422
ag4
(g8
S'*\xdf\xd1>'
p423
tp424
Rp425
ag4
(g8
S'\xed;\xd7>'
p426
tp427
Rp428
ag4
(g8
S'\xba\x91\xd0>'
p429
tp430
Rp431
ag4
(g8
S'\x8au\xcb>'
p432
tp433
Rp434
ag4
(g8
S',X\xcf>'
p435
tp436
Rp437
ag4
(g8
S'\xc7\xfd\xc8>'
p438
tp439
Rp440
ag4
(g8
S'\xa28\xd0>'
p441
tp442
Rp443
ag4
(g8
S'\x0e\xfb\xcd>'
p444
tp445
Rp446
ag4
(g8
S'T\x08\xca>'
p447
tp448
Rp449
ag4
(g8
S'\xed\xff\xc9>'
p450
tp451
Rp452
ag4
(g8
S'HO\xc8>'
p453
tp454
Rp455
ag4
(g8
S'\xa0L\xc6>'
p456
tp457
Rp458
ag4
(g8
S'\x85\xde\xce>'
p459
tp460
Rp461
ag4
(g8
S'\xc0\xf1\xc8>'
p462
tp463
Rp464
ag4
(g8
S'BV\xc6>'
p465
tp466
Rp467
ag4
(g8
S'\xb5\x96\xca>'
p468
tp469
Rp470
ag4
(g8
S'\xcf\x04\xc6>'
p471
tp472
Rp473
ag4
(g8
S'\x1c\xf9\xcd>'
p474
tp475
Rp476
ag4
(g8
S'y\xb9\xc8>'
p477
tp478
Rp479
ag4
(g8
S'\x04p\xc4>'
p480
tp481
Rp482
ag4
(g8
S'\xf5\x90\xc6>'
p483
tp484
Rp485
ag4
(g8
S'\xb4\x1c\xc6>'
p486
tp487
Rp488
ag4
(g8
S'\xfeO\xc8>'
p489
tp490
Rp491
ag4
(g8
S'\x90>\xc9>'
p492
tp493
Rp494
ag4
(g8
S'\x8c`\xc4>'
p495
tp496
Rp497
ag4
(g8
S'\x9a\x17\xc4>'
p498
tp499
Rp500
ag4
(g8
S')\xec\xc1>'
p501
tp502
Rp503
ag4
(g8
S'!;\xc6>'
p504
tp505
Rp506
ag4
(g8
S'\xa3\xe3\xbf>'
p507
tp508
Rp509
ag4
(g8
S'\xf4R\xbd>'
p510
tp511
Rp512
ag4
(g8
S'\x8e\x12\xbb>'
p513
tp514
Rp515
ag4
(g8
S'\\9\xbc>'
p516
tp517
Rp518
ag4
(g8
S'\x16\xef\xc3>'
p519
tp520
Rp521
ag4
(g8
S'\xf0\x02\xc3>'
p522
tp523
Rp524
ag4
(g8
S'\xdd\x80\xbc>'
p525
tp526
Rp527
ag4
(g8
S'8~\xc2>'
p528
tp529
Rp530
ag4
(g8
S'\x1e\x06\xbf>'
p531
tp532
Rp533
ag4
(g8
S'\x1aM\xc2>'
p534
tp535
Rp536
ag4
(g8
S'_9\xc4>'
p537
tp538
Rp539
ag4
(g8
S'pK\xc7>'
p540
tp541
Rp542
ag4
(g8
S'f\xa7\xbb>'
p543
tp544
Rp545
ag4
(g8
S'\x9bj\xbc>'
p546
tp547
Rp548
ag4
(g8
S'6\xe0\xbe>'
p549
tp550
Rp551
ag4
(g8
S'\x87\xd1\xc7>'
p552
tp553
Rp554
ag4
(g8
S'\x90\xe7\xbf>'
p555
tp556
Rp557
ag4
(g8
S'\xf8\xc3\xbc>'
p558
tp559
Rp560
ag4
(g8
S'6\xe6\xc2>'
p561
tp562
Rp563
ag4
(g8
S'\xa4)\xc0>'
p564
tp565
Rp566
ag4
(g8
S'\x0bf\xba>'
p567
tp568
Rp569
ag4
(g8
S'\xe7+\xc1>'
p570
tp571
Rp572
ag4
(g8
S'\xbe\x86\xba>'
p573
tp574
Rp575
ag4
(g8
S'\x03\xbf\xbb>'
p576
tp577
Rp578
ag4
(g8
S'q\xa8\xc2>'
p579
tp580
Rp581
ag4
(g8
S'\xd2\x03\xbb>'
p582
tp583
Rp584
ag4
(g8
S'\xb1u\xc4>'
p585
tp586
Rp587
ag4
(g8
S'\xf7\xfc\xb9>'
p588
tp589
Rp590
ag4
(g8
S'\xcaP\xba>'
p591
tp592
Rp593
ag4
(g8
S'\xbc\xae\xbb>'
p594
tp595
Rp596
ag4
(g8
S'\xdbQ\xb9>'
p597
tp598
Rp599
ag4
(g8
S'\xeez\xb6>'
p600
tp601
Rp602
ag4
(g8
S'4"\xbc>'
p603
tp604
Rp605
ag4
(g8
S']\xa1\xba>'
p606
tp607
Rp608
ag4
(g8
S't\xd1\xb8>'
p609
tp610
Rp611
a(lp612
g4
(g8
S'\x90w\x8f?'
p613
tp614
Rp615
ag4
(g8
S'\xd9uL?'
p616
tp617
Rp618
ag4
(g8
S'\xd9g4?'
p619
tp620
Rp621
ag4
(g8
S'\xe7\x14%?'
p622
tp623
Rp624
ag4
(g8
S'\xbc\x05 ?'
p625
tp626
Rp627
ag4
(g8
S'\xbc\\\x1a?'
p628
tp629
Rp630
ag4
(g8
S'lT\x16?'
p631
tp632
Rp633
ag4
(g8
S'E!\x14?'
p634
tp635
Rp636
ag4
(g8
S'(U\x0f?'
p637
tp638
Rp639
ag4
(g8
S'\x9b\xb5\x0c?'
p640
tp641
Rp642
ag4
(g8
S'\xc9\xf0\n?'
p643
tp644
Rp645
ag4
(g8
S'\xc7c\x07?'
p646
tp647
Rp648
ag4
(g8
S'\x10\xc6\x08?'
p649
tp650
Rp651
ag4
(g8
S'\xbae\x06?'
p652
tp653
Rp654
ag4
(g8
S'\x98\xd0\x03?'
p655
tp656
Rp657
ag4
(g8
S'\x7f\x08\x02?'
p658
tp659
Rp660
ag4
(g8
S'\xf5\x99\x02?'
p661
tp662
Rp663
ag4
(g8
S'\x1b\xa7\x00?'
p664
tp665
Rp666
ag4
(g8
S'\xb6\xef\xff>'
p667
tp668
Rp669
ag4
(g8
S'\x0eQ\xfc>'
p670
tp671
Rp672
ag4
(g8
S'\x9eP\xfb>'
p673
tp674
Rp675
ag4
(g8
S'\xa9\x1b\xfa>'
p676
tp677
Rp678
ag4
(g8
S'\xd66\xfa>'
p679
tp680
Rp681
ag4
(g8
S'\xb7\x9f\xfa>'
p682
tp683
Rp684
ag4
(g8
S'y\xe0\xf5>'
p685
tp686
Rp687
ag4
(g8
S'\x91v\xf3>'
p688
tp689
Rp690
ag4
(g8
S'\x1dy\xf4>'
p691
tp692
Rp693
ag4
(g8
S'3a\xf3>'
p694
tp695
Rp696
ag4
(g8
S'\xfd\x89\xf3>'
p697
tp698
Rp699
ag4
(g8
S'\n\xd1\xee>'
p700
tp701
Rp702
ag4
(g8
S'\xeer\xee>'
p703
tp704
Rp705
ag4
(g8
S'4"\xf0>'
p706
tp707
Rp708
ag4
(g8
S'\x80\xa3\xf0>'
p709
tp710
Rp711
ag4
(g8
S'\xf2o\xf0>'
p712
tp713
Rp714
ag4
(g8
S'\x05\xe4\xec>'
p715
tp716
Rp717
ag4
(g8
S'Xk\xe8>'
p718
tp719
Rp720
ag4
(g8
S']\x8e\xec>'
p721
tp722
Rp723
ag4
(g8
S'X3\xeb>'
p724
tp725
Rp726
ag4
(g8
S'Q\xbf\xe8>'
p727
tp728
Rp729
ag4
(g8
S'd\x1f\xe8>'
p730
tp731
Rp732
ag4
(g8
S'\x10;\xe6>'
p733
tp734
Rp735
ag4
(g8
S'z\xea\xe9>'
p736
tp737
Rp738
ag4
(g8
S'\xc2\x82\xe5>'
p739
tp740
Rp741
ag4
(g8
S'\xec\xc6\xe8>'
p742
tp743
Rp744
ag4
(g8
S'\xbd\x97\xe5>'
p745
tp746
Rp747
ag4
(g8
S'Vo\xe5>'
p748
tp749
Rp750
ag4
(g8
S'\xcf\xae\xe5>'
p751
tp752
Rp753
ag4
(g8
S'\x04\x07\xe3>'
p754
tp755
Rp756
ag4
(g8
S'\x87\xdf\xe2>'
p757
tp758
Rp759
ag4
(g8
S'\xf4\xc9\xe1>'
p760
tp761
Rp762
ag4
(g8
S'R\xbb\xe2>'
p763
tp764
Rp765
ag4
(g8
S'{\xc5\xe2>'
p766
tp767
Rp768
ag4
(g8
S'\xf2-\xe2>'
p769
tp770
Rp771
ag4
(g8
S'\x10\xb5\xe0>'
p772
tp773
Rp774
ag4
(g8
S',J\xe4>'
p775
tp776
Rp777
ag4
(g8
S'0\x9c\xe3>'
p778
tp779
Rp780
ag4
(g8
S'&5\xdd>'
p781
tp782
Rp783
ag4
(g8
S'h\xb8\xe0>'
p784
tp785
Rp786
ag4
(g8
S'*\xb6\xdd>'
p787
tp788
Rp789
ag4
(g8
S'\x06\xde\xdb>'
p790
tp791
Rp792
ag4
(g8
S'?T\xe0>'
p793
tp794
Rp795
ag4
(g8
S'~4\xdc>'
p796
tp797
Rp798
ag4
(g8
S'X\xd0\xdd>'
p799
tp800
Rp801
ag4
(g8
S'\xb8\xf2\xdd>'
p802
tp803
Rp804
ag4
(g8
S'\x0c\xab\xde>'
p805
tp806
Rp807
ag4
(g8
S'y\xec\xdb>'
p808
tp809
Rp810
ag4
(g8
S'X&\xd9>'
p811
tp812
Rp813
ag4
(g8
S'\xa2\xa0\xd8>'
p814
tp815
Rp816
ag4
(g8
S'\x96J\xde>'
p817
tp818
Rp819
ag4
(g8
S'\xd2\xe8\xdd>'
p820
tp821
Rp822
ag4
(g8
S'\xac\xfb\xdb>'
p823
tp824
Rp825
ag4
(g8
S'\xce\x19\xdc>'
p826
tp827
Rp828
ag4
(g8
S'\xcc\xc7\xdc>'
p829
tp830
Rp831
ag4
(g8
S'\x16\xd5\xde>'
p832
tp833
Rp834
ag4
(g8
S'\x83o\xdd>'
p835
tp836
Rp837
ag4
(g8
S'\x07\xb7\xdd>'
p838
tp839
Rp840
ag4
(g8
S'\xa1s\xd9>'
p841
tp842
Rp843
ag4
(g8
S'\x8e\xfc\xde>'
p844
tp845
Rp846
ag4
(g8
S'm\xec\xdb>'
p847
tp848
Rp849
ag4
(g8
S'>\xe9\xdc>'
p850
tp851
Rp852
ag4
(g8
S'\xe3\x1a\xda>'
p853
tp854
Rp855
ag4
(g8
S'\xfc\xf0\xd4>'
p856
tp857
Rp858
ag4
(g8
S'&2\xda>'
p859
tp860
Rp861
ag4
(g8
S'\xafi\xdd>'
p862
tp863
Rp864
ag4
(g8
S'\xdd;\xd7>'
p865
tp866
Rp867
ag4
(g8
S'\xbaV\xd7>'
p868
tp869
Rp870
ag4
(g8
S'\xcd\xa0\xd9>'
p871
tp872
Rp873
ag4
(g8
S'"\x8c\xdb>'
p874
tp875
Rp876
ag4
(g8
S'\xf9\t\xdd>'
p877
tp878
Rp879
ag4
(g8
S'~\x01\xda>'
p880
tp881
Rp882
ag4
(g8
S'f\xa2\xd7>'
p883
tp884
Rp885
ag4
(g8
S'\xb8\xab\xd8>'
p886
tp887
Rp888
ag4
(g8
S'o\x0e\xd5>'
p889
tp890
Rp891
ag4
(g8
S'&\xe3\xd6>'
p892
tp893
Rp894
ag4
(g8
S'<\x0f\xd6>'
p895
tp896
Rp897
ag4
(g8
S'%T\xd3>'
p898
tp899
Rp900
ag4
(g8
S'\xb0L\xd8>'
p901
tp902
Rp903
ag4
(g8
S'\x17\xec\xd4>'
p904
tp905
Rp906
ag4
(g8
S'\xe8V\xd4>'
p907
tp908
Rp909
ag4
(g8
S',\x84\xd9>'
p910
tp911
Rp912
a(F0.0001
I1
I1000
F0.0003
F1.0
tp913
tp914
.